target datalayout = "e-m:e-p270:32:32-p271:32:32-p272:64:64-i64:64-i128:128-f80:128-n8:16:32:64-S128"
target triple = "x86_64-pc-linux-gnu"

%struct.wtap_opttype_t = type { ptr, ptr, i32, i32 }
%struct.wtap_block = type { ptr, ptr, ptr, i32 }
%struct.wtap_blocktype_t = type { i32, ptr, ptr, ptr, ptr, ptr, ptr }
%struct._GArray = type { ptr, i32 }
%struct.wtap_option_t = type { i32, %union.wtap_optval_t }
%union.wtap_optval_t = type { %struct.custom_opt_s }
%struct.custom_opt_s = type { i32, %union.anon.0 }
%union.anon.0 = type { %struct.nflx_custom_opt_data }
%struct.nflx_custom_opt_data = type { i32, i64, ptr, i8 }

; Function Attrs: nounwind null_pointer_is_valid sspstrong uwtable
define internal ptr @wtap_block_get_option(ptr noundef %0, i32 noundef %1) #2 {
  %3 = alloca ptr, align 8
  %4 = alloca ptr, align 8
  %5 = alloca i32, align 4
  %6 = alloca i32, align 4
  %7 = alloca ptr, align 8
  %8 = alloca i32, align 4
  store ptr %0, ptr %4, align 8
  store i32 %1, ptr %5, align 4
  call void @llvm.lifetime.start.p0(i64 4, ptr %6) #15
  call void @llvm.lifetime.start.p0(i64 8, ptr %7) #15
  %9 = load ptr, ptr %4, align 8
  %10 = icmp eq ptr %9, null
  br i1 %10, label %11, label %12

11:                                               ; preds = %2
  store ptr null, ptr %3, align 8
  store i32 1, ptr %8, align 4
  br label %43

12:                                               ; preds = %2
  store i32 0, ptr %6, align 4
  br label %13

13:                                               ; preds = %39, %12
  %14 = load i32, ptr %6, align 4
  %15 = load ptr, ptr %4, align 8
  %16 = getelementptr inbounds nuw %struct.wtap_block, ptr %15, i32 0, i32 2
  %17 = load ptr, ptr %16, align 8
  %18 = getelementptr inbounds nuw %struct._GArray, ptr %17, i32 0, i32 1
  %19 = load i32, ptr %18, align 8
  %20 = icmp ult i32 %14, %19
  br i1 %20, label %21, label %42

21:                                               ; preds = %13
  %22 = load ptr, ptr %4, align 8
  %23 = getelementptr inbounds nuw %struct.wtap_block, ptr %22, i32 0, i32 2
  %24 = load ptr, ptr %23, align 8
  %25 = getelementptr inbounds nuw %struct._GArray, ptr %24, i32 0, i32 0
  %26 = load ptr, ptr %25, align 8
  %27 = load i32, ptr %6, align 4
  %28 = zext i32 %27 to i64
  %29 = getelementptr %struct.wtap_option_t, ptr %26, i64 %28
  store ptr %29, ptr %7, align 8
  %30 = load ptr, ptr %7, align 8
  %31 = getelementptr inbounds nuw %struct.wtap_option_t, ptr %30, i32 0, i32 0
  %32 = load i32, ptr %31, align 8
  %33 = load i32, ptr %5, align 4
  %34 = icmp eq i32 %32, %33
  br i1 %34, label %35, label %38

35:                                               ; preds = %21
  %36 = load ptr, ptr %7, align 8
  %37 = getelementptr inbounds nuw %struct.wtap_option_t, ptr %36, i32 0, i32 1
  store ptr %37, ptr %3, align 8
  store i32 1, ptr %8, align 4
  br label %43

38:                                               ; preds = %21
  br label %39

39:                                               ; preds = %38
  %40 = load i32, ptr %6, align 4
  %41 = add i32 %40, 1
  store i32 %41, ptr %6, align 4
  br label %13, !llvm.loop !22

42:                                               ; preds = %13
  store ptr null, ptr %3, align 8
  store i32 1, ptr %8, align 4
  br label %43

43:                                               ; preds = %42, %35, %11
  call void @llvm.lifetime.end.p0(i64 8, ptr %7) #15
  call void @llvm.lifetime.end.p0(i64 4, ptr %6) #15
  %44 = load ptr, ptr %3, align 8
  ret ptr %44
}

; Function Attrs: null_pointer_is_valid sspstrong uwtable
define internal i32 @wtap_block_add_option_common(ptr noundef %0, i32 noundef %1, i32 noundef %2, ptr noundef %3) #0 {
  %5 = alloca i32, align 4
  %6 = alloca ptr, align 8
  %7 = alloca i32, align 4
  %8 = alloca i32, align 4
  %9 = alloca ptr, align 8
  %10 = alloca ptr, align 8
  %11 = alloca ptr, align 8
  %12 = alloca i32, align 4
  %13 = alloca i32, align 4
  store ptr %0, ptr %6, align 8
  store i32 %1, ptr %7, align 4
  store i32 %2, ptr %8, align 4
  store ptr %3, ptr %9, align 8
  call void @llvm.lifetime.start.p0(i64 8, ptr %10) #15
  call void @llvm.lifetime.start.p0(i64 8, ptr %11) #15
  call void @llvm.lifetime.start.p0(i64 4, ptr %12) #15
  %14 = load ptr, ptr %6, align 8
  %15 = icmp eq ptr %14, null
  br i1 %15, label %16, label %17

16:                                               ; preds = %4
  store i32 -6, ptr %5, align 4
  store i32 1, ptr %13, align 4
  br label %75

17:                                               ; preds = %4
  %18 = load ptr, ptr %6, align 8
  %19 = getelementptr inbounds nuw %struct.wtap_block, ptr %18, i32 0, i32 0
  %20 = load ptr, ptr %19, align 8
  %21 = getelementptr inbounds nuw %struct.wtap_blocktype_t, ptr %20, i32 0, i32 6
  %22 = load ptr, ptr %21, align 8
  %23 = load i32, ptr %7, align 4
  %24 = zext i32 %23 to i64
  %25 = inttoptr i64 %24 to ptr
  %26 = call ptr @g_hash_table_lookup(ptr noundef %22, ptr noundef %25)
  store ptr %26, ptr %11, align 8
  %27 = load ptr, ptr %11, align 8
  %28 = icmp eq ptr %27, null
  br i1 %28, label %29, label %30

29:                                               ; preds = %17
  store i32 -1, ptr %5, align 4
  store i32 1, ptr %13, align 4
  br label %75

30:                                               ; preds = %17
  %31 = load ptr, ptr %11, align 8
  %32 = getelementptr inbounds nuw %struct.wtap_opttype_t, ptr %31, i32 0, i32 2
  %33 = load i32, ptr %32, align 8
  %34 = load i32, ptr %8, align 4
  %35 = icmp ne i32 %33, %34
  br i1 %35, label %36, label %37

36:                                               ; preds = %30
  store i32 -3, ptr %5, align 4
  store i32 1, ptr %13, align 4
  br label %75

37:                                               ; preds = %30
  %38 = load ptr, ptr %11, align 8
  %39 = getelementptr inbounds nuw %struct.wtap_opttype_t, ptr %38, i32 0, i32 3
  %40 = load i32, ptr %39, align 4
  %41 = and i32 %40, 1
  %42 = icmp ne i32 %41, 0
  br i1 %42, label %50, label %43

43:                                               ; preds = %37
  %44 = load ptr, ptr %6, align 8
  %45 = load i32, ptr %7, align 4
  %46 = call ptr @wtap_block_get_option(ptr noundef %44, i32 noundef %45)
  %47 = icmp ne ptr %46, null
  br i1 %47, label %48, label %49

48:                                               ; preds = %43
  store i32 -5, ptr %5, align 4
  store i32 1, ptr %13, align 4
  br label %75

49:                                               ; preds = %43
  br label %50

50:                                               ; preds = %49, %37
  %51 = load ptr, ptr %6, align 8
  %52 = getelementptr inbounds nuw %struct.wtap_block, ptr %51, i32 0, i32 2
  %53 = load ptr, ptr %52, align 8
  %54 = getelementptr inbounds nuw %struct._GArray, ptr %53, i32 0, i32 1
  %55 = load i32, ptr %54, align 8
  store i32 %55, ptr %12, align 4
  %56 = load ptr, ptr %6, align 8
  %57 = getelementptr inbounds nuw %struct.wtap_block, ptr %56, i32 0, i32 2
  %58 = load ptr, ptr %57, align 8
  %59 = load i32, ptr %12, align 4
  %60 = add i32 %59, 1
  %61 = call ptr @g_array_set_size(ptr noundef %58, i32 noundef %60)
  %62 = load ptr, ptr %6, align 8
  %63 = getelementptr inbounds nuw %struct.wtap_block, ptr %62, i32 0, i32 2
  %64 = load ptr, ptr %63, align 8
  %65 = getelementptr inbounds nuw %struct._GArray, ptr %64, i32 0, i32 0
  %66 = load ptr, ptr %65, align 8
  %67 = load i32, ptr %12, align 4
  %68 = zext i32 %67 to i64
  %69 = getelementptr %struct.wtap_option_t, ptr %66, i64 %68
  store ptr %69, ptr %10, align 8
  %70 = load i32, ptr %7, align 4
  %71 = load ptr, ptr %10, align 8
  %72 = getelementptr inbounds nuw %struct.wtap_option_t, ptr %71, i32 0, i32 0
  store i32 %70, ptr %72, align 8
  %73 = load ptr, ptr %10, align 8
  %74 = load ptr, ptr %9, align 8
  store ptr %73, ptr %74, align 8
  store i32 0, ptr %5, align 4
  store i32 1, ptr %13, align 4
  br label %75

75:                                               ; preds = %50, %48, %36, %29, %16
  call void @llvm.lifetime.end.p0(i64 4, ptr %12) #15
  call void @llvm.lifetime.end.p0(i64 8, ptr %11) #15
  call void @llvm.lifetime.end.p0(i64 8, ptr %10) #15
  %76 = load i32, ptr %5, align 4
  ret i32 %76
}

; Function Attrs: null_pointer_is_valid sspstrong uwtable
define i32 @wtap_block_add_nflx_custom_option(ptr noundef %0, i32 noundef %1, ptr noundef %2, i64 noundef %3) #0 {
  %5 = alloca i32, align 4
  %6 = alloca ptr, align 8
  %7 = alloca i32, align 4
  %8 = alloca ptr, align 8
  %9 = alloca i64, align 8
  %10 = alloca i32, align 4
  %11 = alloca ptr, align 8
  %12 = alloca i32, align 4
  store ptr %0, ptr %6, align 8
  store i32 %1, ptr %7, align 4
  store ptr %2, ptr %8, align 8
  store i64 %3, ptr %9, align 8
  call void @llvm.lifetime.start.p0(i64 4, ptr %10) #15
  call void @llvm.lifetime.start.p0(i64 8, ptr %11) #15
  %13 = load ptr, ptr %6, align 8
  %14 = call i32 @wtap_block_add_option_common(ptr noundef %13, i32 noundef 2989, i32 noundef 7, ptr noundef %11)
  store i32 %14, ptr %10, align 4
  %15 = load i32, ptr %10, align 4
  %16 = icmp ne i32 %15, 0
  br i1 %16, label %17, label %19

17:                                               ; preds = %4
  %18 = load i32, ptr %10, align 4
  store i32 %18, ptr %5, align 4
  store i32 1, ptr %12, align 4
  br label %51

19:                                               ; preds = %4
  %20 = load ptr, ptr %11, align 8
  %21 = getelementptr inbounds nuw %struct.wtap_option_t, ptr %20, i32 0, i32 1
  %22 = getelementptr inbounds nuw %struct.custom_opt_s, ptr %21, i32 0, i32 0
  store i32 10949, ptr %22, align 8
  %23 = load i32, ptr %7, align 4
  %24 = load ptr, ptr %11, align 8
  %25 = getelementptr inbounds nuw %struct.wtap_option_t, ptr %24, i32 0, i32 1
  %26 = getelementptr inbounds nuw %struct.custom_opt_s, ptr %25, i32 0, i32 1
  %27 = getelementptr inbounds nuw %struct.nflx_custom_opt_data, ptr %26, i32 0, i32 0
  store i32 %23, ptr %27, align 8
  %28 = load i64, ptr %9, align 8
  %29 = load ptr, ptr %11, align 8
  %30 = getelementptr inbounds nuw %struct.wtap_option_t, ptr %29, i32 0, i32 1
  %31 = getelementptr inbounds nuw %struct.custom_opt_s, ptr %30, i32 0, i32 1
  %32 = getelementptr inbounds nuw %struct.nflx_custom_opt_data, ptr %31, i32 0, i32 1
  store i64 %28, ptr %32, align 8
  %33 = load ptr, ptr %8, align 8
  %34 = load i64, ptr %9, align 8
  %35 = call ptr @g_memdup2(ptr noundef %33, i64 noundef %34) #19
  %36 = load ptr, ptr %11, align 8
  %37 = getelementptr inbounds nuw %struct.wtap_option_t, ptr %36, i32 0, i32 1
  %38 = getelementptr inbounds nuw %struct.custom_opt_s, ptr %37, i32 0, i32 1
  %39 = getelementptr inbounds nuw %struct.nflx_custom_opt_data, ptr %38, i32 0, i32 2
  store ptr %35, ptr %39, align 8
  %40 = load ptr, ptr %6, align 8
  %41 = getelementptr inbounds nuw %struct.wtap_block, ptr %40, i32 0, i32 0
  %42 = load ptr, ptr %41, align 8
  %43 = getelementptr inbounds nuw %struct.wtap_blocktype_t, ptr %42, i32 0, i32 0
  %44 = load i32, ptr %43, align 8
  %45 = icmp eq i32 %44, 11
  %46 = load ptr, ptr %11, align 8
  %47 = getelementptr inbounds nuw %struct.wtap_option_t, ptr %46, i32 0, i32 1
  %48 = getelementptr inbounds nuw %struct.custom_opt_s, ptr %47, i32 0, i32 1
  %49 = getelementptr inbounds nuw %struct.nflx_custom_opt_data, ptr %48, i32 0, i32 3
  %50 = zext i1 %45 to i8
  store i8 %50, ptr %49, align 8
  store i32 0, ptr %5, align 4
  store i32 1, ptr %12, align 4
  br label %51

51:                                               ; preds = %19, %17
  call void @llvm.lifetime.end.p0(i64 8, ptr %11) #15
  call void @llvm.lifetime.end.p0(i64 4, ptr %10) #15
  %52 = load i32, ptr %5, align 4
  ret i32 %52
}