; Function Attrs: null_pointer_is_valid sspstrong uwtable
define range(i32 -6, 1) i32 @wtap_block_add_nflx_custom_option(ptr noundef readonly captures(address_is_null) %0, i32 noundef %1, ptr noundef %2, i64 noundef %3) local_unnamed_addr #0 {
  %5 = icmp eq ptr %0, null
  br i1 %5, label %wtap_block_add_option_common.exit.thread, label %6

6:                                                ; preds = %4
  %7 = load ptr, ptr %0, align 8
  %8 = getelementptr inbounds nuw i8, ptr %7, i64 48
  %9 = load ptr, ptr %8, align 8
  %10 = tail call ptr @g_hash_table_lookup(ptr noundef %9, ptr noundef nonnull inttoptr (i64 2989 to ptr))
  %11 = icmp eq ptr %10, null
  br i1 %11, label %wtap_block_add_option_common.exit.thread, label %12

12:                                               ; preds = %6
  %13 = getelementptr inbounds nuw i8, ptr %10, i64 16
  %14 = load i32, ptr %13, align 8
  %.not.i = icmp eq i32 %14, 7
  br i1 %.not.i, label %15, label %wtap_block_add_option_common.exit.thread

15:                                               ; preds = %12
  %16 = getelementptr inbounds nuw i8, ptr %10, i64 20
  %17 = load i32, ptr %16, align 4
  %18 = and i32 %17, 1
  %.not20.i = icmp eq i32 %18, 0
  %19 = getelementptr inbounds nuw i8, ptr %0, i64 16
  %20 = load ptr, ptr %19, align 8
  %21 = getelementptr inbounds nuw i8, ptr %20, i64 8
  %22 = load i32, ptr %21, align 8
  br i1 %.not20.i, label %23, label %.loopexit

23:                                               ; preds = %15
  %.not.i.i = icmp eq i32 %22, 0
  br i1 %.not.i.i, label %.loopexit, label %.lr.ph.i.i

.lr.ph.i.i:                                       ; preds = %23
  %24 = load ptr, ptr %20, align 8
  %wide.trip.count.i.i = zext i32 %22 to i64
  br label %26

25:                                               ; preds = %26
  %indvars.iv.next.i.i = add nuw nsw i64 %indvars.iv.i.i, 1
  %exitcond.not.i.i = icmp eq i64 %indvars.iv.next.i.i, %wide.trip.count.i.i
  br i1 %exitcond.not.i.i, label %.loopexit, label %26, !llvm.loop !11

26:                                               ; preds = %25, %.lr.ph.i.i
  %indvars.iv.i.i = phi i64 [ 0, %.lr.ph.i.i ], [ %indvars.iv.next.i.i, %25 ]
  %27 = getelementptr %struct.wtap_option_t, ptr %24, i64 %indvars.iv.i.i
  %28 = load i32, ptr %27, align 8
  %29 = icmp eq i32 %28, 2989
  br i1 %29, label %wtap_block_add_option_common.exit.thread, label %25

.loopexit:                                        ; preds = %25, %23, %15
  %30 = phi i32 [ 0, %23 ], [ %22, %15 ], [ %22, %25 ]
  %31 = add i32 %30, 1
  %32 = tail call ptr @g_array_set_size(ptr noundef %20, i32 noundef %31)
  %33 = load ptr, ptr %19, align 8
  %34 = load ptr, ptr %33, align 8
  %35 = zext i32 %30 to i64
  %36 = getelementptr %struct.wtap_option_t, ptr %34, i64 %35
  store i32 2989, ptr %36, align 8
  %37 = getelementptr inbounds nuw i8, ptr %36, i64 8
  store i32 10949, ptr %37, align 8
  %38 = getelementptr inbounds nuw i8, ptr %36, i64 16
  store i32 %1, ptr %38, align 8
  %39 = getelementptr inbounds nuw i8, ptr %36, i64 24
  store i64 %3, ptr %39, align 8
  %40 = tail call ptr @g_memdup2(ptr noundef %2, i64 noundef %3) #18
  %41 = getelementptr inbounds nuw i8, ptr %36, i64 32
  store ptr %40, ptr %41, align 8
  %42 = load ptr, ptr %0, align 8
  %43 = load i32, ptr %42, align 8
  %44 = icmp eq i32 %43, 11
  %45 = getelementptr inbounds nuw i8, ptr %36, i64 40
  %46 = zext i1 %44 to i8
  store i8 %46, ptr %45, align 8
  br label %wtap_block_add_option_common.exit.thread

wtap_block_add_option_common.exit.thread:         ; preds = %26, %12, %6, %4, %.loopexit
  %.0 = phi i32 [ 0, %.loopexit ], [ -3, %12 ], [ -1, %6 ], [ -6, %4 ], [ -5, %26 ]
  ret i32 %.0
}